target datalayout = "e-m:e-p270:32:32-p271:32:32-p272:64:64-i64:64-i128:128-f80:128-n8:16:32:64-S128"
target triple = "x86_64-pc-linux-gnu"

%struct._lv_obj_class_t = type { ptr, ptr, ptr, ptr, ptr, ptr, i32, i32, i32 }

@lv_calendar_header_dropdown_class = constant { ptr, ptr, ptr, ptr, ptr, ptr, i32, i32, i8, i8, i8, [5 x i8] } { ptr @lv_obj_class, ptr @my_constructor, ptr null, ptr null, ptr null, ptr @.str, i32 536871012, i32 1073741823, i8 0, i8 0, i8 0, [5 x i8] zeroinitializer }, align 8
@lv_dropdown_class = external constant %struct._lv_obj_class_t, align 8

; Function Attrs: nounwind uwtable
define void @lv_calendar_header_dropdown_set_year_list(ptr noundef %0, ptr noundef %1) #0 {
  %3 = alloca ptr, align 8
  %4 = alloca ptr, align 8
  %5 = alloca ptr, align 8
  %6 = alloca i32, align 4
  %7 = alloca i32, align 4
  %8 = alloca ptr, align 8
  store ptr %0, ptr %3, align 8, !tbaa !3
  store ptr %1, ptr %4, align 8, !tbaa !3
  call void @llvm.lifetime.start.p0(i64 8, ptr %5) #4
  %9 = load ptr, ptr %3, align 8, !tbaa !3
  %10 = call ptr @lv_obj_get_child_by_type(ptr noundef %9, i32 noundef 0, ptr noundef @lv_calendar_header_dropdown_class)
  store ptr %10, ptr %5, align 8, !tbaa !3
  %11 = load ptr, ptr %5, align 8, !tbaa !3
  %12 = icmp eq ptr null, %11
  br i1 %12, label %13, label %14

13:                                               ; preds = %2
  store i32 1, ptr %6, align 4
  br label %26

14:                                               ; preds = %2
  call void @llvm.lifetime.start.p0(i64 4, ptr %7) #4
  store i32 0, ptr %7, align 4, !tbaa !7
  call void @llvm.lifetime.start.p0(i64 8, ptr %8) #4
  %15 = load ptr, ptr %5, align 8, !tbaa !3
  %16 = call ptr @lv_obj_get_child_by_type(ptr noundef %15, i32 noundef 0, ptr noundef @lv_dropdown_class)
  store ptr %16, ptr %8, align 8, !tbaa !3
  %17 = load ptr, ptr %8, align 8, !tbaa !3
  %18 = icmp eq ptr null, %17
  br i1 %18, label %19, label %20

19:                                               ; preds = %14
  store i32 1, ptr %6, align 4
  br label %25

20:                                               ; preds = %14
  %21 = load ptr, ptr %8, align 8, !tbaa !3
  call void @lv_dropdown_clear_options(ptr noundef %21)
  %22 = load ptr, ptr %8, align 8, !tbaa !3
  %23 = load ptr, ptr %4, align 8, !tbaa !3
  call void @lv_dropdown_set_options(ptr noundef %22, ptr noundef %23)
  %24 = load ptr, ptr %3, align 8, !tbaa !3
  call void @lv_obj_invalidate(ptr noundef %24)
  store i32 0, ptr %6, align 4
  br label %25

25:                                               ; preds = %20, %19
  call void @llvm.lifetime.end.p0(i64 8, ptr %8) #4
  call void @llvm.lifetime.end.p0(i64 4, ptr %7) #4
  br label %26

26:                                               ; preds = %25, %13
  call void @llvm.lifetime.end.p0(i64 8, ptr %5) #4
  %27 = load i32, ptr %6, align 4
  switch i32 %27, label %29 [
    i32 0, label %28
    i32 1, label %28
  ]

28:                                               ; preds = %26, %26
  ret void

29:                                               ; preds = %26
  unreachable
}