; Function Attrs: nounwind uwtable
define void @lv_calendar_header_dropdown_set_year_list(ptr noundef %0, ptr noundef %1) local_unnamed_addr #0 {
  %3 = tail call ptr @lv_obj_get_child_by_type(ptr noundef %0, i32 noundef 0, ptr noundef nonnull @lv_calendar_header_dropdown_class) #2
  %4 = icmp eq ptr %3, null
  br i1 %4, label %9, label %5

5:                                                ; preds = %2
  %6 = tail call ptr @lv_obj_get_child_by_type(ptr noundef nonnull %3, i32 noundef 0, ptr noundef nonnull @lv_dropdown_class) #2
  %7 = icmp eq ptr %6, null
  br i1 %7, label %9, label %8

8:                                                ; preds = %5
  tail call void @lv_dropdown_clear_options(ptr noundef nonnull %6) #2
  tail call void @lv_dropdown_set_options(ptr noundef nonnull %6, ptr noundef %1) #2
  tail call void @lv_obj_invalidate(ptr noundef %0) #2
  br label %9

9:                                                ; preds = %8, %5, %2
  ret void
}